target datalayout = "e-m:e-p270:32:32-p271:32:32-p272:64:64-i64:64-i128:128-f80:128-n8:16:32:64-S128"
target triple = "x86_64-pc-linux-gnu"

@PEM_dek_info.map = internal constant [17 x i8] c"0123456789ABCDEF\00", align 16
@.str.6 = private unnamed_addr constant [11 x i8] c"DEK-Info: \00", align 1
@.str.7 = private unnamed_addr constant [2 x i8] c",\00", align 1

; Function Attrs: nounwind uwtable
define hidden void @PEM_dek_info(ptr noundef %0, ptr noundef %1, i32 noundef %2, ptr noundef %3) #0 {
  %5 = alloca ptr, align 8
  %6 = alloca ptr, align 8
  %7 = alloca i32, align 4
  %8 = alloca ptr, align 8
  %9 = alloca i64, align 8
  %10 = alloca i32, align 4
  %11 = alloca i32, align 4
  store ptr %0, ptr %5, align 8, !tbaa !6
  store ptr %1, ptr %6, align 8, !tbaa !6
  store i32 %2, ptr %7, align 4, !tbaa !11
  store ptr %3, ptr %8, align 8, !tbaa !6
  call void @llvm.lifetime.start.p0(i64 8, ptr %9) #7
  call void @llvm.lifetime.start.p0(i64 4, ptr %10) #7
  %12 = load ptr, ptr %5, align 8, !tbaa !6
  %13 = call i64 @BUF_strlcat(ptr noundef %12, ptr noundef @.str.6, i64 noundef 1024)
  %14 = load ptr, ptr %5, align 8, !tbaa !6
  %15 = load ptr, ptr %6, align 8, !tbaa !6
  %16 = call i64 @BUF_strlcat(ptr noundef %14, ptr noundef %15, i64 noundef 1024)
  %17 = load ptr, ptr %5, align 8, !tbaa !6
  %18 = call i64 @BUF_strlcat(ptr noundef %17, ptr noundef @.str.7, i64 noundef 1024)
  %19 = load ptr, ptr %5, align 8, !tbaa !6
  %20 = call i64 @strlen(ptr noundef %19) #8
  %21 = trunc i64 %20 to i32
  store i32 %21, ptr %10, align 4, !tbaa !11
  %22 = load i32, ptr %10, align 4, !tbaa !11
  %23 = load i32, ptr %7, align 4, !tbaa !11
  %24 = mul nsw i32 %23, 2
  %25 = add nsw i32 %22, %24
  %26 = add nsw i32 %25, 1
  %27 = icmp sgt i32 %26, 1024
  br i1 %27, label %28, label %29

28:                                               ; preds = %4
  store i32 1, ptr %11, align 4
  br label %89

29:                                               ; preds = %4
  store i64 0, ptr %9, align 8, !tbaa !13
  br label %30

30:                                               ; preds = %70, %29
  %31 = load i64, ptr %9, align 8, !tbaa !13
  %32 = load i32, ptr %7, align 4, !tbaa !11
  %33 = sext i32 %32 to i64
  %34 = icmp slt i64 %31, %33
  br i1 %34, label %35, label %73

35:                                               ; preds = %30
  %36 = load ptr, ptr %8, align 8, !tbaa !6
  %37 = load i64, ptr %9, align 8, !tbaa !13
  %38 = getelementptr inbounds i8, ptr %36, i64 %37
  %39 = load i8, ptr %38, align 1, !tbaa !15
  %40 = sext i8 %39 to i32
  %41 = ashr i32 %40, 4
  %42 = and i32 %41, 15
  %43 = sext i32 %42 to i64
  %44 = getelementptr inbounds [17 x i8], ptr @PEM_dek_info.map, i64 0, i64 %43
  %45 = load i8, ptr %44, align 1, !tbaa !15
  %46 = load ptr, ptr %5, align 8, !tbaa !6
  %47 = load i32, ptr %10, align 4, !tbaa !11
  %48 = sext i32 %47 to i64
  %49 = load i64, ptr %9, align 8, !tbaa !13
  %50 = mul nsw i64 %49, 2
  %51 = add nsw i64 %48, %50
  %52 = getelementptr inbounds i8, ptr %46, i64 %51
  store i8 %45, ptr %52, align 1, !tbaa !15
  %53 = load ptr, ptr %8, align 8, !tbaa !6
  %54 = load i64, ptr %9, align 8, !tbaa !13
  %55 = getelementptr inbounds i8, ptr %53, i64 %54
  %56 = load i8, ptr %55, align 1, !tbaa !15
  %57 = sext i8 %56 to i32
  %58 = and i32 %57, 15
  %59 = sext i32 %58 to i64
  %60 = getelementptr inbounds [17 x i8], ptr @PEM_dek_info.map, i64 0, i64 %59
  %61 = load i8, ptr %60, align 1, !tbaa !15
  %62 = load ptr, ptr %5, align 8, !tbaa !6
  %63 = load i32, ptr %10, align 4, !tbaa !11
  %64 = sext i32 %63 to i64
  %65 = load i64, ptr %9, align 8, !tbaa !13
  %66 = mul nsw i64 %65, 2
  %67 = add nsw i64 %64, %66
  %68 = add nsw i64 %67, 1
  %69 = getelementptr inbounds i8, ptr %62, i64 %68
  store i8 %61, ptr %69, align 1, !tbaa !15
  br label %70

70:                                               ; preds = %35
  %71 = load i64, ptr %9, align 8, !tbaa !13
  %72 = add nsw i64 %71, 1
  store i64 %72, ptr %9, align 8, !tbaa !13
  br label %30, !llvm.loop !16

73:                                               ; preds = %30
  %74 = load ptr, ptr %5, align 8, !tbaa !6
  %75 = load i32, ptr %10, align 4, !tbaa !11
  %76 = sext i32 %75 to i64
  %77 = load i64, ptr %9, align 8, !tbaa !13
  %78 = mul nsw i64 %77, 2
  %79 = add nsw i64 %76, %78
  %80 = getelementptr inbounds i8, ptr %74, i64 %79
  store i8 10, ptr %80, align 1, !tbaa !15
  %81 = load ptr, ptr %5, align 8, !tbaa !6
  %82 = load i32, ptr %10, align 4, !tbaa !11
  %83 = sext i32 %82 to i64
  %84 = load i64, ptr %9, align 8, !tbaa !13
  %85 = mul nsw i64 %84, 2
  %86 = add nsw i64 %83, %85
  %87 = add nsw i64 %86, 1
  %88 = getelementptr inbounds i8, ptr %81, i64 %87
  store i8 0, ptr %88, align 1, !tbaa !15
  store i32 0, ptr %11, align 4
  br label %89

89:                                               ; preds = %73, %28
  call void @llvm.lifetime.end.p0(i64 4, ptr %10) #7
  call void @llvm.lifetime.end.p0(i64 8, ptr %9) #7
  %90 = load i32, ptr %11, align 4
  switch i32 %90, label %92 [
    i32 0, label %91
    i32 1, label %91
  ]

91:                                               ; preds = %89, %89
  ret void

92:                                               ; preds = %89
  unreachable
}