; Function Attrs: nounwind uwtable
define hidden void @PEM_dek_info(ptr noundef %0, ptr noundef %1, i32 noundef %2, ptr noundef readonly captures(none) %3) local_unnamed_addr #0 {
  %5 = tail call i64 @BUF_strlcat(ptr noundef %0, ptr noundef nonnull @.str.6, i64 noundef 1024) #12
  %6 = tail call i64 @BUF_strlcat(ptr noundef %0, ptr noundef %1, i64 noundef 1024) #12
  %7 = tail call i64 @BUF_strlcat(ptr noundef %0, ptr noundef nonnull @.str.7, i64 noundef 1024) #12
  %8 = tail call i64 @strlen(ptr noundef nonnull dereferenceable(1) %0) #13
  %9 = trunc i64 %8 to i32
  %10 = shl nsw i32 %2, 1
  %11 = add nsw i32 %10, %9
  %12 = icmp sgt i32 %11, 1023
  br i1 %12, label %37, label %.preheader

.preheader:                                       ; preds = %4
  %13 = sext i32 %2 to i64
  %14 = icmp sgt i32 %2, 0
  %sext25 = shl i64 %8, 32
  %15 = ashr exact i64 %sext25, 32
  br i1 %14, label %.lr.ph, label %._crit_edge

.lr.ph:                                           ; preds = %.preheader
  %16 = getelementptr i8, ptr %0, i64 %15
  br label %17

17:                                               ; preds = %.lr.ph, %17
  %.026 = phi i64 [ 0, %.lr.ph ], [ %32, %17 ]
  %18 = getelementptr inbounds nuw i8, ptr %3, i64 %.026
  %19 = load i8, ptr %18, align 1, !tbaa !6
  %20 = lshr i8 %19, 4
  %21 = zext nneg i8 %20 to i64
  %22 = getelementptr inbounds nuw [17 x i8], ptr @PEM_dek_info.map, i64 0, i64 %21
  %23 = load i8, ptr %22, align 1, !tbaa !6
  %24 = shl nuw nsw i64 %.026, 1
  %25 = getelementptr i8, ptr %16, i64 %24
  store i8 %23, ptr %25, align 1, !tbaa !6
  %26 = load i8, ptr %18, align 1, !tbaa !6
  %27 = and i8 %26, 15
  %28 = zext nneg i8 %27 to i64
  %29 = getelementptr inbounds nuw [17 x i8], ptr @PEM_dek_info.map, i64 0, i64 %28
  %30 = load i8, ptr %29, align 1, !tbaa !6
  %31 = getelementptr i8, ptr %25, i64 1
  store i8 %30, ptr %31, align 1, !tbaa !6
  %32 = add nuw nsw i64 %.026, 1
  %exitcond.not = icmp eq i64 %32, %13
  br i1 %exitcond.not, label %._crit_edge.loopexit, label %17, !llvm.loop !9

._crit_edge.loopexit:                             ; preds = %17
  %33 = shl nuw nsw i64 %13, 1
  br label %._crit_edge

._crit_edge:                                      ; preds = %.preheader, %._crit_edge.loopexit
  %.0.lcssa = phi i64 [ %33, %._crit_edge.loopexit ], [ 0, %.preheader ]
  %34 = getelementptr i8, ptr %0, i64 %15
  %35 = getelementptr i8, ptr %34, i64 %.0.lcssa
  store i8 10, ptr %35, align 1, !tbaa !6
  %36 = getelementptr i8, ptr %35, i64 1
  store i8 0, ptr %36, align 1, !tbaa !6
  br label %37

37:                                               ; preds = %4, %._crit_edge
  ret void
}